target datalayout = "e-m:e-p270:32:32-p271:32:32-p272:64:64-i64:64-i128:128-f80:128-n8:16:32:64-S128"
target triple = "x86_64-pc-linux-gnu"

%"struct.(anonymous namespace)::WarningOption" = type { i16, i16, i16, %"class.llvm::StringRef" }
%"class.llvm::StringRef" = type { ptr, i64 }
%"struct.(anonymous namespace)::StaticDiagInfoRec" = type <{ i16, i32, i8, i8, i16 }>
%"class.llvm::SmallVectorBase" = type { ptr, i32, i32 }

; Function Attrs: mustprogress nounwind uwtable
define linkonce_odr hidden noundef ptr @_ZNK4llvm25SmallVectorTemplateCommonIjvE10getFirstElEv(ptr noundef nonnull align 8 dereferenceable(16) %0) #0 comdat align 2 {
  %2 = alloca ptr, align 8
  store ptr %0, ptr %2, align 8
  %3 = load ptr, ptr %2, align 8
  %4 = getelementptr inbounds i8, ptr %3, i64 16
  ret ptr %4
}

; Function Attrs: mustprogress nounwind uwtable
define linkonce_odr hidden void @_ZN4llvm25SmallVectorTemplateCommonIjvE8grow_podEmm(ptr noundef nonnull align 8 dereferenceable(16) %0, i64 noundef %1, i64 noundef %2) #0 comdat align 2 {
  %4 = alloca ptr, align 8
  %5 = alloca i64, align 8
  %6 = alloca i64, align 8
  store ptr %0, ptr %4, align 8
  store i64 %1, ptr %5, align 8
  store i64 %2, ptr %6, align 8
  %7 = load ptr, ptr %4, align 8
  %8 = call noundef ptr @_ZNK4llvm25SmallVectorTemplateCommonIjvE10getFirstElEv(ptr noundef nonnull align 8 dereferenceable(16) %7)
  %9 = load i64, ptr %5, align 8
  %10 = load i64, ptr %6, align 8
  call void @_ZN4llvm15SmallVectorBaseIjE8grow_podEPvmm(ptr noundef nonnull align 8 dereferenceable(16) %7, ptr noundef %8, i64 noundef %9, i64 noundef %10)
  ret void
}

; Function Attrs: mustprogress nounwind uwtable
define linkonce_odr hidden void @_ZN4llvm23SmallVectorTemplateBaseIjLb1EE4growEm(ptr noundef nonnull align 8 dereferenceable(16) %0, i64 noundef %1) #0 comdat align 2 {
  %3 = alloca ptr, align 8
  %4 = alloca i64, align 8
  store ptr %0, ptr %3, align 8
  store i64 %1, ptr %4, align 8
  %5 = load ptr, ptr %3, align 8
  %6 = load i64, ptr %4, align 8
  call void @_ZN4llvm25SmallVectorTemplateCommonIjvE8grow_podEmm(ptr noundef nonnull align 8 dereferenceable(16) %5, i64 noundef %6, i64 noundef 4)
  ret void
}

; Function Attrs: mustprogress nounwind uwtable
define linkonce_odr hidden noundef ptr @_ZN4llvm25SmallVectorTemplateCommonIjvE5beginEv(ptr noundef nonnull align 8 dereferenceable(16) %0) #0 comdat align 2 {
  %2 = alloca ptr, align 8
  store ptr %0, ptr %2, align 8
  %3 = load ptr, ptr %2, align 8
  %4 = getelementptr inbounds nuw %"class.llvm::SmallVectorBase", ptr %3, i32 0, i32 0
  %5 = load ptr, ptr %4, align 8
  ret ptr %5
}

; Function Attrs: mustprogress nounwind uwtable
define linkonce_odr hidden noundef ptr @_ZN4llvm25SmallVectorTemplateCommonIjvE32reserveForParamAndGetAddressImplINS_23SmallVectorTemplateBaseIjLb1EEEEEPKjPT_RS5_m(ptr noundef %0, ptr noundef nonnull align 4 dereferenceable(4) %1, i64 noundef %2) #0 comdat align 2 {
  %4 = alloca ptr, align 8
  %5 = alloca ptr, align 8
  %6 = alloca ptr, align 8
  %7 = alloca i64, align 8
  %8 = alloca i64, align 8
  %9 = alloca i8, align 1
  %10 = alloca i64, align 8
  store ptr %0, ptr %5, align 8
  store ptr %1, ptr %6, align 8
  store i64 %2, ptr %7, align 8
  %11 = load ptr, ptr %5, align 8
  %12 = call noundef i64 @_ZNK4llvm15SmallVectorBaseIjE4sizeEv(ptr noundef nonnull align 8 dereferenceable(16) %11)
  %13 = load i64, ptr %7, align 8
  %14 = add i64 %12, %13
  store i64 %14, ptr %8, align 8
  %15 = load i64, ptr %8, align 8
  %16 = load ptr, ptr %5, align 8
  %17 = call noundef i64 @_ZNK4llvm15SmallVectorBaseIjE8capacityEv(ptr noundef nonnull align 8 dereferenceable(16) %16)
  %18 = icmp ule i64 %15, %17
  br i1 %18, label %19, label %21

19:                                               ; preds = %3
  %20 = load ptr, ptr %6, align 8
  store ptr %20, ptr %4, align 8
  br label %35

21:                                               ; preds = %3
  store i8 0, ptr %9, align 1
  store i64 -1, ptr %10, align 8
  %22 = load ptr, ptr %5, align 8
  %23 = load i64, ptr %8, align 8
  call void @_ZN4llvm23SmallVectorTemplateBaseIjLb1EE4growEm(ptr noundef nonnull align 8 dereferenceable(16) %22, i64 noundef %23)
  %24 = load i8, ptr %9, align 1
  %25 = trunc i8 %24 to i1
  br i1 %25, label %26, label %31

26:                                               ; preds = %21
  %27 = load ptr, ptr %5, align 8
  %28 = call noundef ptr @_ZN4llvm25SmallVectorTemplateCommonIjvE5beginEv(ptr noundef nonnull align 8 dereferenceable(16) %27)
  %29 = load i64, ptr %10, align 8
  %30 = getelementptr inbounds i32, ptr %28, i64 %29
  br label %33

31:                                               ; preds = %21
  %32 = load ptr, ptr %6, align 8
  br label %33

33:                                               ; preds = %31, %26
  %34 = phi ptr [ %30, %26 ], [ %32, %31 ]
  store ptr %34, ptr %4, align 8
  br label %35

35:                                               ; preds = %33, %19
  %36 = load ptr, ptr %4, align 8
  ret ptr %36
}

; Function Attrs: mustprogress nounwind uwtable
define linkonce_odr hidden noundef ptr @_ZN4llvm25SmallVectorTemplateCommonIjvE3endEv(ptr noundef nonnull align 8 dereferenceable(16) %0) #0 comdat align 2 {
  %2 = alloca ptr, align 8
  store ptr %0, ptr %2, align 8
  %3 = load ptr, ptr %2, align 8
  %4 = call noundef ptr @_ZN4llvm25SmallVectorTemplateCommonIjvE5beginEv(ptr noundef nonnull align 8 dereferenceable(16) %3)
  %5 = call noundef i64 @_ZNK4llvm15SmallVectorBaseIjE4sizeEv(ptr noundef nonnull align 8 dereferenceable(16) %3)
  %6 = getelementptr inbounds i32, ptr %4, i64 %5
  ret ptr %6
}

; Function Attrs: mustprogress nounwind uwtable
define linkonce_odr hidden noundef ptr @_ZN4llvm23SmallVectorTemplateBaseIjLb1EE28reserveForParamAndGetAddressERjm(ptr noundef nonnull align 8 dereferenceable(16) %0, ptr noundef nonnull align 4 dereferenceable(4) %1, i64 noundef %2) #0 comdat align 2 {
  %4 = alloca ptr, align 8
  %5 = alloca ptr, align 8
  %6 = alloca i64, align 8
  store ptr %0, ptr %4, align 8
  store ptr %1, ptr %5, align 8
  store i64 %2, ptr %6, align 8
  %7 = load ptr, ptr %4, align 8
  %8 = load ptr, ptr %5, align 8
  %9 = load i64, ptr %6, align 8
  %10 = call noundef ptr @_ZN4llvm25SmallVectorTemplateCommonIjvE32reserveForParamAndGetAddressImplINS_23SmallVectorTemplateBaseIjLb1EEEEEPKjPT_RS5_m(ptr noundef %7, ptr noundef nonnull align 4 dereferenceable(4) %8, i64 noundef %9)
  ret ptr %10
}

; Function Attrs: mustprogress nounwind uwtable
define linkonce_odr hidden void @_ZN4llvm23SmallVectorTemplateBaseIjLb1EE9push_backEj(ptr noundef nonnull align 8 dereferenceable(16) %0, i32 noundef %1) #0 comdat align 2 {
  %3 = alloca ptr, align 8
  %4 = alloca i32, align 4
  %5 = alloca ptr, align 8
  store ptr %0, ptr %3, align 8
  store i32 %1, ptr %4, align 4
  %6 = load ptr, ptr %3, align 8
  %7 = call noundef ptr @_ZN4llvm23SmallVectorTemplateBaseIjLb1EE28reserveForParamAndGetAddressERjm(ptr noundef nonnull align 8 dereferenceable(16) %6, ptr noundef nonnull align 4 dereferenceable(4) %4, i64 noundef 1)
  store ptr %7, ptr %5, align 8
  %8 = call noundef ptr @_ZN4llvm25SmallVectorTemplateCommonIjvE3endEv(ptr noundef nonnull align 8 dereferenceable(16) %6)
  %9 = load ptr, ptr %5, align 8
  call void @llvm.memcpy.p0.p0.i64(ptr align 1 %8, ptr align 4 %9, i64 4, i1 false)
  %10 = call noundef i64 @_ZNK4llvm15SmallVectorBaseIjE4sizeEv(ptr noundef nonnull align 8 dereferenceable(16) %6)
  %11 = add i64 %10, 1
  call void @_ZN4llvm15SmallVectorBaseIjE8set_sizeEm(ptr noundef nonnull align 8 dereferenceable(16) %6, i64 noundef %11)
  ret void
}

; Function Attrs: mustprogress nounwind uwtable
define internal noundef i32 @_ZNK12_GLOBAL__N_117StaticDiagInfoRec9getFlavorEv(ptr noundef nonnull align 2 dereferenceable(10) %0) #0 align 2 {
  %2 = alloca ptr, align 8
  store ptr %0, ptr %2, align 8
  %3 = load ptr, ptr %2, align 8
  %4 = getelementptr inbounds nuw %"struct.(anonymous namespace)::StaticDiagInfoRec", ptr %3, i32 0, i32 1
  %5 = load i32, ptr %4, align 2
  %6 = lshr i32 %5, 3
  %7 = and i32 %6, 7
  %8 = trunc i32 %7 to i8
  %9 = zext i8 %8 to i32
  %10 = icmp eq i32 %9, 2
  %11 = select i1 %10, i32 1, i32 0
  ret i32 %11
}

; Function Attrs: mustprogress nounwind uwtable
define internal noundef zeroext i1 @_ZL21getDiagnosticsInGroupN5clang4diag6FlavorEPKN12_GLOBAL__N_113WarningOptionERN4llvm15SmallVectorImplIjEE(i32 noundef %0, ptr noundef %1, ptr noundef nonnull align 8 dereferenceable(16) %2) #0 {
  %4 = alloca i1, align 1
  %5 = alloca i32, align 4
  %6 = alloca ptr, align 8
  %7 = alloca ptr, align 8
  %8 = alloca i8, align 1
  %9 = alloca ptr, align 8
  %10 = alloca ptr, align 8
  store i32 %0, ptr %5, align 4
  store ptr %1, ptr %6, align 8
  store ptr %2, ptr %7, align 8
  %11 = load ptr, ptr %6, align 8
  %12 = getelementptr inbounds nuw %"struct.(anonymous namespace)::WarningOption", ptr %11, i32 0, i32 1
  %13 = load i16, ptr %12, align 2
  %14 = icmp ne i16 %13, 0
  br i1 %14, label %23, label %15

15:                                               ; preds = %3
  %16 = load ptr, ptr %6, align 8
  %17 = getelementptr inbounds nuw %"struct.(anonymous namespace)::WarningOption", ptr %16, i32 0, i32 2
  %18 = load i16, ptr %17, align 4
  %19 = icmp ne i16 %18, 0
  br i1 %19, label %23, label %20

20:                                               ; preds = %15
  %21 = load i32, ptr %5, align 4
  %22 = icmp eq i32 %21, 1
  store i1 %22, ptr %4, align 1
  br label %85

23:                                               ; preds = %15, %3
  store i8 1, ptr %8, align 1
  %24 = load ptr, ptr %6, align 8
  %25 = getelementptr inbounds nuw %"struct.(anonymous namespace)::WarningOption", ptr %24, i32 0, i32 1
  %26 = load i16, ptr %25, align 2
  %27 = zext i16 %26 to i32
  %28 = sext i32 %27 to i64
  %29 = getelementptr inbounds i16, ptr @_ZL10DiagArrays, i64 %28
  store ptr %29, ptr %9, align 8
  br label %30

30:                                               ; preds = %49, %23
  %31 = load ptr, ptr %9, align 8
  %32 = load i16, ptr %31, align 2
  %33 = sext i16 %32 to i32
  %34 = icmp ne i32 %33, -1
  br i1 %34, label %35, label %52

35:                                               ; preds = %30
  %36 = load ptr, ptr %9, align 8
  %37 = load i16, ptr %36, align 2
  %38 = sext i16 %37 to i32
  %39 = call noundef ptr @_ZL11GetDiagInfoj(i32 noundef %38)
  %40 = call noundef i32 @_ZNK12_GLOBAL__N_117StaticDiagInfoRec9getFlavorEv(ptr noundef nonnull align 2 dereferenceable(10) %39)
  %41 = load i32, ptr %5, align 4
  %42 = icmp eq i32 %40, %41
  br i1 %42, label %43, label %48

43:                                               ; preds = %35
  store i8 0, ptr %8, align 1
  %44 = load ptr, ptr %7, align 8
  %45 = load ptr, ptr %9, align 8
  %46 = load i16, ptr %45, align 2
  %47 = sext i16 %46 to i32
  call void @_ZN4llvm23SmallVectorTemplateBaseIjLb1EE9push_backEj(ptr noundef nonnull align 8 dereferenceable(16) %44, i32 noundef %47)
  br label %48

48:                                               ; preds = %43, %35
  br label %49

49:                                               ; preds = %48
  %50 = load ptr, ptr %9, align 8
  %51 = getelementptr inbounds i16, ptr %50, i32 1
  store ptr %51, ptr %9, align 8
  br label %30, !llvm.loop !7

52:                                               ; preds = %30
  %53 = load ptr, ptr %6, align 8
  %54 = getelementptr inbounds nuw %"struct.(anonymous namespace)::WarningOption", ptr %53, i32 0, i32 2
  %55 = load i16, ptr %54, align 4
  %56 = zext i16 %55 to i32
  %57 = sext i32 %56 to i64
  %58 = getelementptr inbounds i16, ptr @_ZL13DiagSubGroups, i64 %57
  store ptr %58, ptr %10, align 8
  br label %59

59:                                               ; preds = %79, %52
  %60 = load ptr, ptr %10, align 8
  %61 = load i16, ptr %60, align 2
  %62 = sext i16 %61 to i32
  %63 = icmp ne i32 %62, -1
  br i1 %63, label %64, label %82

64:                                               ; preds = %59
  %65 = load i32, ptr %5, align 4
  %66 = load ptr, ptr %10, align 8
  %67 = load i16, ptr %66, align 2
  %68 = sext i16 %67 to i64
  %69 = getelementptr inbounds [1055 x %"struct.(anonymous namespace)::WarningOption"], ptr @_ZL11OptionTable, i64 0, i64 %68
  %70 = load ptr, ptr %7, align 8
  %71 = call noundef zeroext i1 @_ZL21getDiagnosticsInGroupN5clang4diag6FlavorEPKN12_GLOBAL__N_113WarningOptionERN4llvm15SmallVectorImplIjEE(i32 noundef %65, ptr noundef %69, ptr noundef nonnull align 8 dereferenceable(16) %70)
  %72 = zext i1 %71 to i32
  %73 = load i8, ptr %8, align 1
  %74 = trunc i8 %73 to i1
  %75 = zext i1 %74 to i32
  %76 = and i32 %75, %72
  %77 = icmp ne i32 %76, 0
  %78 = zext i1 %77 to i8
  store i8 %78, ptr %8, align 1
  br label %79

79:                                               ; preds = %64
  %80 = load ptr, ptr %10, align 8
  %81 = getelementptr inbounds i16, ptr %80, i32 1
  store ptr %81, ptr %10, align 8
  br label %59, !llvm.loop !8

82:                                               ; preds = %59
  %83 = load i8, ptr %8, align 1
  %84 = trunc i8 %83 to i1
  store i1 %84, ptr %4, align 1
  br label %85

85:                                               ; preds = %82, %20
  %86 = load i1, ptr %4, align 1
  ret i1 %86
}