; Function Attrs: mustprogress nounwind uwtable
define internal fastcc noundef zeroext i1 @_ZL21getDiagnosticsInGroupN5clang4diag6FlavorEPKN12_GLOBAL__N_113WarningOptionERN4llvm15SmallVectorImplIjEE(i32 noundef %0, ptr nocapture noundef readonly %1, ptr noundef nonnull align 8 dereferenceable(16) %2) unnamed_addr #4 {
  %4 = getelementptr inbounds nuw i8, ptr %1, i64 2
  %5 = load i16, ptr %4, align 2
  %.not = icmp eq i16 %5, 0
  br i1 %.not, label %6, label %11

6:                                                ; preds = %3
  %7 = getelementptr inbounds nuw i8, ptr %1, i64 4
  %8 = load i16, ptr %7, align 4
  %.not22 = icmp eq i16 %8, 0
  br i1 %.not22, label %9, label %11

9:                                                ; preds = %6
  %10 = icmp eq i32 %0, 1
  br label %.loopexit

11:                                               ; preds = %6, %3
  %12 = zext i16 %5 to i64
  %13 = getelementptr inbounds i16, ptr @_ZL10DiagArrays, i64 %12
  %14 = load i16, ptr %13, align 2
  %.not2325 = icmp eq i16 %14, -1
  br i1 %.not2325, label %._crit_edge, label %.lr.ph

.lr.ph:                                           ; preds = %11
  %15 = getelementptr inbounds i8, ptr %2, i64 16
  br label %16

16:                                               ; preds = %.lr.ph, %35
  %17 = phi i16 [ %14, %.lr.ph ], [ %37, %35 ]
  %.01827 = phi ptr [ %13, %.lr.ph ], [ %36, %35 ]
  %.01926 = phi i1 [ true, %.lr.ph ], [ %.1, %35 ]
  %18 = sext i16 %17 to i32
  %19 = tail call fastcc noundef ptr @_ZL11GetDiagInfoj(i32 noundef %18)
  %20 = getelementptr i8, ptr %19, i64 2
  %.val = load i32, ptr %20, align 2
  %21 = and i32 %.val, 56
  %22 = icmp eq i32 %21, 16
  %23 = zext i1 %22 to i32
  %24 = icmp eq i32 %0, %23
  br i1 %24, label %25, label %35

25:                                               ; preds = %16
  %26 = tail call noundef i64 @_ZNK4llvm15SmallVectorBaseIjE4sizeEv(ptr noundef nonnull align 8 dereferenceable(16) %2) #22
  %27 = add i64 %26, 1
  %28 = tail call noundef i64 @_ZNK4llvm15SmallVectorBaseIjE8capacityEv(ptr noundef nonnull align 8 dereferenceable(16) %2) #22
  %.not.i.i.i = icmp ugt i64 %27, %28
  br i1 %.not.i.i.i, label %29, label %_ZN4llvm23SmallVectorTemplateBaseIjLb1EE9push_backEj.exit

29:                                               ; preds = %25
  tail call void @_ZN4llvm15SmallVectorBaseIjE8grow_podEPvmm(ptr noundef nonnull align 8 dereferenceable(16) %2, ptr noundef nonnull %15, i64 noundef %27, i64 noundef 4) #22
  br label %_ZN4llvm23SmallVectorTemplateBaseIjLb1EE9push_backEj.exit

_ZN4llvm23SmallVectorTemplateBaseIjLb1EE9push_backEj.exit: ; preds = %25, %29
  %30 = load ptr, ptr %2, align 8
  %31 = tail call noundef i64 @_ZNK4llvm15SmallVectorBaseIjE4sizeEv(ptr noundef nonnull align 8 dereferenceable(16) %2) #22
  %32 = getelementptr inbounds i32, ptr %30, i64 %31
  store i32 %18, ptr %32, align 1
  %33 = tail call noundef i64 @_ZNK4llvm15SmallVectorBaseIjE4sizeEv(ptr noundef nonnull align 8 dereferenceable(16) %2) #22
  %34 = add i64 %33, 1
  tail call void @_ZN4llvm15SmallVectorBaseIjE8set_sizeEm(ptr noundef nonnull align 8 dereferenceable(16) %2, i64 noundef %34) #22
  br label %35

35:                                               ; preds = %16, %_ZN4llvm23SmallVectorTemplateBaseIjLb1EE9push_backEj.exit
  %.1 = phi i1 [ false, %_ZN4llvm23SmallVectorTemplateBaseIjLb1EE9push_backEj.exit ], [ %.01926, %16 ]
  %36 = getelementptr inbounds i8, ptr %.01827, i64 2
  %37 = load i16, ptr %36, align 2
  %.not23 = icmp eq i16 %37, -1
  br i1 %.not23, label %._crit_edge, label %16, !llvm.loop !20

._crit_edge:                                      ; preds = %35, %11
  %.019.lcssa = phi i1 [ true, %11 ], [ %.1, %35 ]
  %38 = getelementptr inbounds nuw i8, ptr %1, i64 4
  %39 = load i16, ptr %38, align 4
  %40 = zext i16 %39 to i64
  %41 = getelementptr inbounds i16, ptr @_ZL13DiagSubGroups, i64 %40
  %42 = load i16, ptr %41, align 2
  %.not2428 = icmp eq i16 %42, -1
  br i1 %.not2428, label %.loopexit, label %.lr.ph32

.lr.ph32:                                         ; preds = %._crit_edge, %.lr.ph32
  %43 = phi i16 [ %49, %.lr.ph32 ], [ %42, %._crit_edge ]
  %.030 = phi ptr [ %48, %.lr.ph32 ], [ %41, %._crit_edge ]
  %.229 = phi i1 [ %47, %.lr.ph32 ], [ %.019.lcssa, %._crit_edge ]
  %44 = sext i16 %43 to i64
  %45 = getelementptr inbounds [1055 x %"struct.(anonymous namespace)::WarningOption"], ptr @_ZL11OptionTable, i64 0, i64 %44
  %46 = tail call fastcc noundef zeroext i1 @_ZL21getDiagnosticsInGroupN5clang4diag6FlavorEPKN12_GLOBAL__N_113WarningOptionERN4llvm15SmallVectorImplIjEE(i32 noundef %0, ptr noundef nonnull %45, ptr noundef nonnull align 8 dereferenceable(16) %2)
  %47 = and i1 %.229, %46
  %48 = getelementptr inbounds i8, ptr %.030, i64 2
  %49 = load i16, ptr %48, align 2
  %.not24 = icmp eq i16 %49, -1
  br i1 %.not24, label %.loopexit, label %.lr.ph32, !llvm.loop !21

.loopexit:                                        ; preds = %.lr.ph32, %._crit_edge, %9
  %.020 = phi i1 [ %10, %9 ], [ %.019.lcssa, %._crit_edge ], [ %47, %.lr.ph32 ]
  ret i1 %.020
}